target datalayout = "e-m:e-p270:32:32-p271:32:32-p272:64:64-i64:64-i128:128-f80:128-n8:16:32:64-S128"
target triple = "x86_64-pc-linux-gnu"

@.str.2 = private unnamed_addr constant [101 x i8] c"generated/home/dtcxzyw/WorkSpace/Projects/compilers/llvm-opt-benchmark/bench/hdf5/hdf5/src/H5VLint.c\00", align 1
@H5E_VOL_g = external global i64, align 8
@H5E_CANTSET_g = external global i64, align 8
@H5E_BADTYPE_g = external global i64, align 8
@__func__.H5VL_setup_args = private unnamed_addr constant [16 x i8] c"H5VL_setup_args\00", align 1
@.str.94 = private unnamed_addr constant [27 x i8] c"not the correct type of ID\00", align 1
@.str.95 = private unnamed_addr constant [35 x i8] c"can't set collective metadata read\00", align 1

; Function Attrs: nounwind uwtable
define i32 @H5VL_setup_args(i64 noundef %0, i32 noundef %1, ptr noundef %2) #0 {
  %4 = alloca i64, align 8
  %5 = alloca i32, align 4
  %6 = alloca ptr, align 8
  %7 = alloca i32, align 4
  %8 = alloca i8, align 1
  store i64 %0, ptr %4, align 8
  store i32 %1, ptr %5, align 4
  store ptr %2, ptr %6, align 8
  store i32 0, ptr %7, align 4
  store i8 0, ptr %8, align 1
  %9 = load i64, ptr %4, align 8
  %10 = load i32, ptr %5, align 4
  %11 = call ptr @H5I_object_verify(i64 noundef %9, i32 noundef %10)
  %12 = load ptr, ptr %6, align 8
  store ptr %11, ptr %12, align 8
  %13 = icmp eq ptr null, %11
  br i1 %13, label %14, label %29

14:                                               ; preds = %3
  br label %15

15:                                               ; preds = %14
  br label %16

16:                                               ; preds = %15
  br label %17

17:                                               ; preds = %16
  %18 = load i64, ptr @H5E_VOL_g, align 8
  %19 = load i64, ptr @H5E_BADTYPE_g, align 8
  %20 = call i32 (ptr, ptr, i32, i64, i64, ptr, ...) @H5E_printf_stack(ptr noundef @.str.2, ptr noundef @__func__.H5VL_setup_args, i32 noundef 2527, i64 noundef %18, i64 noundef %19, ptr noundef @.str.94)
  br label %21

21:                                               ; preds = %17
  store i8 1, ptr %8, align 1
  %22 = load i8, ptr %8, align 1
  %23 = trunc i8 %22 to i1
  %24 = zext i1 %23 to i8
  store i8 %24, ptr %8, align 1
  br label %25

25:                                               ; preds = %21
  br label %26

26:                                               ; preds = %25
  store i32 -1, ptr %7, align 4
  br label %49

27:                                               ; No predecessors!
  br label %28

28:                                               ; preds = %27
  br label %29

29:                                               ; preds = %28, %3
  %30 = load i64, ptr %4, align 8
  %31 = call i32 @H5CX_set_loc(i64 noundef %30)
  %32 = icmp slt i32 %31, 0
  br i1 %32, label %33, label %48

33:                                               ; preds = %29
  br label %34

34:                                               ; preds = %33
  br label %35

35:                                               ; preds = %34
  br label %36

36:                                               ; preds = %35
  %37 = load i64, ptr @H5E_VOL_g, align 8
  %38 = load i64, ptr @H5E_CANTSET_g, align 8
  %39 = call i32 (ptr, ptr, i32, i64, i64, ptr, ...) @H5E_printf_stack(ptr noundef @.str.2, ptr noundef @__func__.H5VL_setup_args, i32 noundef 2531, i64 noundef %37, i64 noundef %38, ptr noundef @.str.95)
  br label %40

40:                                               ; preds = %36
  store i8 1, ptr %8, align 1
  %41 = load i8, ptr %8, align 1
  %42 = trunc i8 %41 to i1
  %43 = zext i1 %42 to i8
  store i8 %43, ptr %8, align 1
  br label %44

44:                                               ; preds = %40
  br label %45

45:                                               ; preds = %44
  store i32 -1, ptr %7, align 4
  br label %49

46:                                               ; No predecessors!
  br label %47

47:                                               ; preds = %46
  br label %48

48:                                               ; preds = %47, %29
  br label %49

49:                                               ; preds = %48, %45, %26
  %50 = load i32, ptr %7, align 4
  ret i32 %50
}