; Function Attrs: nounwind uwtable
define range(i32 -1, 1) i32 @H5VL_setup_args(i64 noundef %0, i32 noundef %1, ptr nocapture noundef writeonly %2) local_unnamed_addr #0 {
  %4 = tail call ptr @H5I_object_verify(i64 noundef %0, i32 noundef %1) #10
  store ptr %4, ptr %2, align 8
  %5 = icmp eq ptr %4, null
  br i1 %5, label %6, label %10

6:                                                ; preds = %3
  %7 = load i64, ptr @H5E_VOL_g, align 8
  %8 = load i64, ptr @H5E_BADTYPE_g, align 8
  %9 = tail call i32 (ptr, ptr, i32, i64, i64, ptr, ...) @H5E_printf_stack(ptr noundef nonnull @.str.2, ptr noundef nonnull @__func__.H5VL_setup_args, i32 noundef 2527, i64 noundef %7, i64 noundef %8, ptr noundef nonnull @.str.94) #10
  br label %17

10:                                               ; preds = %3
  %11 = tail call i32 @H5CX_set_loc(i64 noundef %0) #10
  %12 = icmp slt i32 %11, 0
  br i1 %12, label %13, label %17

13:                                               ; preds = %10
  %14 = load i64, ptr @H5E_VOL_g, align 8
  %15 = load i64, ptr @H5E_CANTSET_g, align 8
  %16 = tail call i32 (ptr, ptr, i32, i64, i64, ptr, ...) @H5E_printf_stack(ptr noundef nonnull @.str.2, ptr noundef nonnull @__func__.H5VL_setup_args, i32 noundef 2531, i64 noundef %14, i64 noundef %15, ptr noundef nonnull @.str.95) #10
  br label %17

17:                                               ; preds = %10, %13, %6
  %.0 = phi i32 [ -1, %6 ], [ -1, %13 ], [ 0, %10 ]
  ret i32 %.0
}